target datalayout = "e-m:e-p270:32:32-p271:32:32-p272:64:64-i64:64-i128:128-f80:128-n8:16:32:64-S128"
target triple = "x86_64-pc-linux-gnu"

%struct.QTailQLink = type { ptr, ptr }
%struct.CPUClass = type { %struct.DeviceClass, ptr, ptr, ptr, ptr, ptr, ptr, ptr, ptr, ptr, ptr, ptr, ptr, ptr, ptr, ptr, ptr, ptr, ptr, ptr, ptr, ptr, i32, i32, i8 }
%struct.DeviceClass = type { %struct.ObjectClass, [1 x i64], ptr, ptr, ptr, i16, i8, i8, ptr, ptr, ptr, ptr, ptr, ptr }
%struct.ObjectClass = type { ptr, ptr, [4 x ptr], [4 x ptr], ptr, ptr }
%struct.CPUState = type { %struct.DeviceState, ptr, i32, ptr, i32, i8, i8, ptr, i8, i8, i8, i8, i8, i8, i8, i8, i32, i32, i32, i32, i64, i64, i64, [1 x %struct.__jmp_buf_tag], %struct.QemuMutex, %struct.anon, ptr, i32, i32, ptr, ptr, ptr, ptr, i32, i32, %union.anon, %union.anon.0, %union.anon.1, ptr, ptr, i64, i32, ptr, ptr, ptr, i32, i64, i32, i8, %struct.QemuLockCnt, ptr, i32, i32, i32, i32, i32, ptr, i8, i64, i8, i8, ptr, [0 x i8], %struct.CPUNegativeOffsetState }
%struct.DeviceState = type { %struct.Object, ptr, ptr, i8, i8, i64, i32, i8, ptr, %struct.NamedGPIOListHead, %struct.NamedClockListHead, %struct.BusStateHead, i32, i32, i32, %struct.ResettableState, ptr, %struct.MemReentrancyGuard }
%struct.Object = type { ptr, ptr, ptr, i32, ptr }
%struct.NamedGPIOListHead = type { ptr }
%struct.NamedClockListHead = type { ptr }
%struct.BusStateHead = type { ptr }
%struct.ResettableState = type { i32, i8, i8 }
%struct.MemReentrancyGuard = type { i8 }
%struct.__jmp_buf_tag = type { [8 x i64], i32, %struct.__sigset_t }
%struct.__sigset_t = type { [16 x i64] }
%struct.QemuMutex = type { %union.pthread_mutex_t, i8 }
%union.pthread_mutex_t = type { %struct.__pthread_mutex_s }
%struct.__pthread_mutex_s = type { i32, i32, i32, i32, i32, i16, i16, %struct.__pthread_internal_list }
%struct.__pthread_internal_list = type { ptr, ptr }
%struct.anon = type { ptr, ptr }
%union.anon = type { %struct.QTailQLink }
%union.anon.0 = type { %struct.QTailQLink }
%union.anon.1 = type { %struct.QTailQLink }
%struct.QemuLockCnt = type { i32 }
%struct.CPUNegativeOffsetState = type { %struct.CPUTLB, ptr, i64, i64, %union.IcountDecr, i8 }
%struct.CPUTLB = type { %struct.CPUTLBCommon, [16 x %struct.CPUTLBDesc], [16 x %struct.CPUTLBDescFast] }
%struct.CPUTLBCommon = type { %struct.QemuSpin, i16, i64, i64, i64 }
%struct.QemuSpin = type { i32 }
%struct.CPUTLBDesc = type { i64, i64, i64, i64, i64, i64, [8 x %union.CPUTLBEntry], [8 x %struct.CPUTLBEntryFull], ptr }
%union.CPUTLBEntry = type { %struct.anon.2 }
%struct.anon.2 = type { i64, i64, i64, i64 }
%struct.CPUTLBEntryFull = type { i64, i64, %struct.MemTxAttrs, i8, i8, i8, [3 x i8], %union.anon.3 }
%struct.MemTxAttrs = type { i32, i8, i8, i16 }
%union.anon.3 = type { %struct.anon.4 }
%struct.anon.4 = type { i8, i8, i8 }
%struct.CPUTLBDescFast = type { i64, ptr }
%union.IcountDecr = type { i32 }

@.str.3 = private unnamed_addr constant [4 x i8] c"cpu\00", align 1
@.str.4 = private unnamed_addr constant [100 x i8] c"/home/dtcxzyw/WorkSpace/Projects/compilers/llvm-opt-benchmark/bench/qemu/qemu/include/hw/core/cpu.h\00", align 1
@__func__.CPU_GET_CLASS = private unnamed_addr constant [14 x i8] c"CPU_GET_CLASS\00", align 1
@qemu_loglevel = external global i32, align 4
@.str.17 = private unnamed_addr constant [20 x i8] c"CPU Reset (CPU %d)\0A\00", align 1

; Function Attrs: nounwind sspstrong uwtable
define dso_local void @cpu_dump_state(ptr noundef %0, ptr noundef %1, i32 noundef %2) #0 {
  %4 = alloca ptr, align 8
  %5 = alloca ptr, align 8
  %6 = alloca i32, align 4
  %7 = alloca ptr, align 8
  store ptr %0, ptr %4, align 8
  store ptr %1, ptr %5, align 8
  store i32 %2, ptr %6, align 4
  call void @llvm.lifetime.start.p0(i64 8, ptr %7) #13
  %8 = load ptr, ptr %4, align 8
  %9 = call ptr @CPU_GET_CLASS(ptr noundef %8)
  store ptr %9, ptr %7, align 8
  %10 = load ptr, ptr %7, align 8
  %11 = getelementptr inbounds nuw %struct.CPUClass, ptr %10, i32 0, i32 6
  %12 = load ptr, ptr %11, align 8
  %13 = icmp ne ptr %12, null
  br i1 %13, label %14, label %22

14:                                               ; preds = %3
  %15 = load ptr, ptr %4, align 8
  call void @cpu_synchronize_state(ptr noundef %15)
  %16 = load ptr, ptr %7, align 8
  %17 = getelementptr inbounds nuw %struct.CPUClass, ptr %16, i32 0, i32 6
  %18 = load ptr, ptr %17, align 8
  %19 = load ptr, ptr %4, align 8
  %20 = load ptr, ptr %5, align 8
  %21 = load i32, ptr %6, align 4
  call void %18(ptr noundef %19, ptr noundef %20, i32 noundef %21)
  br label %22

22:                                               ; preds = %14, %3
  call void @llvm.lifetime.end.p0(i64 8, ptr %7) #13
  ret void
}

; Function Attrs: inlinehint nounwind sspstrong uwtable
define internal void @log_cpu_state(ptr noundef %0, i32 noundef %1) #3 {
  %3 = alloca ptr, align 8
  %4 = alloca i32, align 4
  %5 = alloca ptr, align 8
  store ptr %0, ptr %3, align 8
  store i32 %1, ptr %4, align 4
  call void @llvm.lifetime.start.p0(i64 8, ptr %5) #13
  %6 = call ptr @qemu_log_trylock()
  store ptr %6, ptr %5, align 8
  %7 = load ptr, ptr %5, align 8
  %8 = icmp ne ptr %7, null
  br i1 %8, label %9, label %14

9:                                                ; preds = %2
  %10 = load ptr, ptr %3, align 8
  %11 = load ptr, ptr %5, align 8
  %12 = load i32, ptr %4, align 4
  call void @cpu_dump_state(ptr noundef %10, ptr noundef %11, i32 noundef %12)
  %13 = load ptr, ptr %5, align 8
  call void @qemu_log_unlock(ptr noundef %13)
  br label %14

14:                                               ; preds = %9, %2
  call void @llvm.lifetime.end.p0(i64 8, ptr %5) #13
  ret void
}

; Function Attrs: inlinehint nounwind sspstrong uwtable
define internal zeroext i1 @qemu_loglevel_mask(i32 noundef %0) #3 {
  %2 = alloca i32, align 4
  store i32 %0, ptr %2, align 4
  %3 = load i32, ptr @qemu_loglevel, align 4
  %4 = load i32, ptr %2, align 4
  %5 = and i32 %3, %4
  %6 = icmp ne i32 %5, 0
  ret i1 %6
}

; Function Attrs: inlinehint nounwind sspstrong uwtable
define internal ptr @CPU_GET_CLASS(ptr noundef %0) #3 {
  %2 = alloca ptr, align 8
  store ptr %0, ptr %2, align 8
  %3 = load ptr, ptr %2, align 8
  %4 = call ptr @object_get_class(ptr noundef %3)
  %5 = call ptr @object_class_dynamic_cast_assert(ptr noundef %4, ptr noundef @.str.3, ptr noundef @.str.4, i32 noundef 67, ptr noundef @__func__.CPU_GET_CLASS)
  ret ptr %5
}

; Function Attrs: nounwind sspstrong uwtable
define internal void @cpu_common_reset_hold(ptr noundef %0, i32 noundef %1) #0 {
  %3 = alloca ptr, align 8
  %4 = alloca i32, align 4
  %5 = alloca ptr, align 8
  %6 = alloca ptr, align 8
  %7 = alloca i32, align 4
  store ptr %0, ptr %3, align 8
  store i32 %1, ptr %4, align 4
  call void @llvm.lifetime.start.p0(i64 8, ptr %5) #13
  %8 = load ptr, ptr %3, align 8
  store ptr %8, ptr %5, align 8
  call void @llvm.lifetime.start.p0(i64 8, ptr %6) #13
  %9 = load ptr, ptr %5, align 8
  %10 = call ptr @CPU_GET_CLASS(ptr noundef %9)
  store ptr %10, ptr %6, align 8
  %11 = call zeroext i1 @qemu_loglevel_mask(i32 noundef 512)
  br i1 %11, label %12, label %20

12:                                               ; preds = %2
  %13 = load ptr, ptr %5, align 8
  %14 = getelementptr inbounds nuw %struct.CPUState, ptr %13, i32 0, i32 51
  %15 = load i32, ptr %14, align 16
  call void (ptr, ...) @qemu_log(ptr noundef @.str.17, i32 noundef %15)
  %16 = load ptr, ptr %5, align 8
  %17 = load ptr, ptr %6, align 8
  %18 = getelementptr inbounds nuw %struct.CPUClass, ptr %17, i32 0, i32 22
  %19 = load i32, ptr %18, align 8
  call void @log_cpu_state(ptr noundef %16, i32 noundef %19)
  br label %20

20:                                               ; preds = %12, %2
  %21 = load ptr, ptr %5, align 8
  %22 = getelementptr inbounds nuw %struct.CPUState, ptr %21, i32 0, i32 18
  store i32 0, ptr %22, align 16
  %23 = load ptr, ptr %5, align 8
  %24 = getelementptr inbounds nuw %struct.CPUState, ptr %23, i32 0, i32 12
  %25 = load i8, ptr %24, align 4, !range !11, !noundef !12
  %26 = trunc i8 %25 to i1
  %27 = zext i1 %26 to i32
  %28 = load ptr, ptr %5, align 8
  %29 = getelementptr inbounds nuw %struct.CPUState, ptr %28, i32 0, i32 54
  store i32 %27, ptr %29, align 4
  %30 = load ptr, ptr %5, align 8
  %31 = getelementptr inbounds nuw %struct.CPUState, ptr %30, i32 0, i32 40
  store i64 0, ptr %31, align 16
  %32 = load ptr, ptr %5, align 8
  %33 = getelementptr inbounds nuw %struct.CPUState, ptr %32, i32 0, i32 21
  store i64 0, ptr %33, align 16
  br label %34

34:                                               ; preds = %20
  br label %35

35:                                               ; preds = %34
  br i1 false, label %36, label %37

36:                                               ; preds = %35
  call void @qemu_build_not_reached_always() #14, !srcloc !17
  unreachable

37:                                               ; preds = %35
  %38 = load ptr, ptr %5, align 8
  %39 = getelementptr inbounds nuw %struct.CPUState, ptr %38, i32 0, i32 63
  %40 = getelementptr inbounds nuw %struct.CPUNegativeOffsetState, ptr %39, i32 0, i32 4
  store i32 0, ptr %7, align 4
  %41 = load i32, ptr %7, align 4
  store atomic i32 %41, ptr %40 monotonic, align 8
  br label %42

42:                                               ; preds = %37
  br label %43

43:                                               ; preds = %42
  %44 = load ptr, ptr %5, align 8
  %45 = getelementptr inbounds nuw %struct.CPUState, ptr %44, i32 0, i32 63
  %46 = getelementptr inbounds nuw %struct.CPUNegativeOffsetState, ptr %45, i32 0, i32 5
  store i8 1, ptr %46, align 4
  %47 = load ptr, ptr %5, align 8
  %48 = getelementptr inbounds nuw %struct.CPUState, ptr %47, i32 0, i32 55
  store i32 -1, ptr %48, align 16
  %49 = load ptr, ptr %5, align 8
  %50 = getelementptr inbounds nuw %struct.CPUState, ptr %49, i32 0, i32 14
  store i8 0, ptr %50, align 2
  %51 = load ptr, ptr %5, align 8
  %52 = getelementptr inbounds nuw %struct.CPUState, ptr %51, i32 0, i32 17
  store i32 -1, ptr %52, align 4
  %53 = load ptr, ptr %5, align 8
  call void @cpu_exec_reset_hold(ptr noundef %53)
  call void @llvm.lifetime.end.p0(i64 8, ptr %6) #13
  call void @llvm.lifetime.end.p0(i64 8, ptr %5) #13
  ret void
}