; Function Attrs: nounwind sspstrong uwtable
define internal void @cpu_common_reset_hold(ptr noundef %0, i32 %1) #0 {
  %3 = tail call ptr @object_get_class(ptr noundef %0) #12
  %4 = tail call ptr @object_class_dynamic_cast_assert(ptr noundef %3, ptr noundef nonnull @.str.3, ptr noundef nonnull @.str.4, i32 noundef 67, ptr noundef nonnull @__func__.CPU_GET_CLASS) #12
  %5 = load i32, ptr @qemu_loglevel, align 4
  %6 = and i32 %5, 512
  %.not = icmp eq i32 %6, 0
  br i1 %.not, label %log_cpu_state.exit, label %7

7:                                                ; preds = %2
  %8 = getelementptr inbounds nuw i8, ptr %0, i64 704
  %9 = load i32, ptr %8, align 16
  tail call void (ptr, ...) @qemu_log(ptr noundef nonnull @.str.17, i32 noundef %9) #12
  %10 = getelementptr inbounds nuw i8, ptr %4, i64 352
  %11 = load i32, ptr %10, align 8
  %12 = tail call ptr @qemu_log_trylock() #12
  %.not.i = icmp eq ptr %12, null
  br i1 %.not.i, label %log_cpu_state.exit, label %13

13:                                               ; preds = %7
  %14 = tail call ptr @object_get_class(ptr noundef nonnull %0) #12
  %15 = tail call ptr @object_class_dynamic_cast_assert(ptr noundef %14, ptr noundef nonnull @.str.3, ptr noundef nonnull @.str.4, i32 noundef 67, ptr noundef nonnull @__func__.CPU_GET_CLASS) #12
  %16 = getelementptr inbounds nuw i8, ptr %15, i64 224
  %17 = load ptr, ptr %16, align 8
  %.not.i.i = icmp eq ptr %17, null
  br i1 %.not.i.i, label %cpu_dump_state.exit.i, label %18

18:                                               ; preds = %13
  tail call void @cpu_synchronize_state(ptr noundef nonnull %0) #12
  %19 = load ptr, ptr %16, align 8
  tail call void %19(ptr noundef nonnull %0, ptr noundef nonnull %12, i32 noundef %11) #12
  br label %cpu_dump_state.exit.i

cpu_dump_state.exit.i:                            ; preds = %18, %13
  tail call void @qemu_log_unlock(ptr noundef nonnull %12) #12
  br label %log_cpu_state.exit

log_cpu_state.exit:                               ; preds = %cpu_dump_state.exit.i, %7, %2
  %20 = getelementptr inbounds nuw i8, ptr %0, i64 208
  store i32 0, ptr %20, align 16
  %21 = getelementptr inbounds nuw i8, ptr %0, i64 196
  %22 = load i8, ptr %21, align 4, !range !10, !noundef !11
  %23 = zext nneg i8 %22 to i32
  %24 = getelementptr inbounds nuw i8, ptr %0, i64 716
  store i32 %23, ptr %24, align 4
  %25 = getelementptr inbounds nuw i8, ptr %0, i64 624
  store i64 0, ptr %25, align 16
  %26 = getelementptr inbounds nuw i8, ptr %0, i64 224
  store i64 0, ptr %26, align 16
  %27 = getelementptr inbounds nuw i8, ptr %0, i64 11192
  store atomic i32 0, ptr %27 monotonic, align 8
  %28 = getelementptr inbounds nuw i8, ptr %0, i64 11196
  store i8 1, ptr %28, align 4
  %29 = getelementptr inbounds nuw i8, ptr %0, i64 720
  store i32 -1, ptr %29, align 16
  %30 = getelementptr inbounds nuw i8, ptr %0, i64 198
  store i8 0, ptr %30, align 2
  %31 = getelementptr inbounds nuw i8, ptr %0, i64 204
  store i32 -1, ptr %31, align 4
  tail call void @cpu_exec_reset_hold(ptr noundef %0) #12
  ret void
}